target datalayout = "e-m:e-p270:32:32-p271:32:32-p272:64:64-i64:64-i128:128-f80:128-n8:16:32:64-S128"
target triple = "x86_64-pc-linux-gnu"

@opt_verbosity = internal global i32 6, align 4
@bio_err = external global ptr, align 8
@.str.351 = private unnamed_addr constant [22 x i8] c"../openssl/apps/cmp.c\00", align 1
@.str.352 = private unnamed_addr constant [6 x i8] c"error\00", align 1
@.str.353 = private unnamed_addr constant [1 x i8] zeroinitializer, align 1
@.str.489 = private unnamed_addr constant [53 x i8] c"%s:%s:%d:CMP %s: NULL arg to write_PKIMESSAGE%s%s%s\0A\00", align 1
@__func__.write_PKIMESSAGE = private unnamed_addr constant [17 x i8] c"write_PKIMESSAGE\00", align 1
@.str.490 = private unnamed_addr constant [78 x i8] c"%s:%s:%d:CMP %s: not enough file names provided for writing PKIMessage%s%s%s\0A\00", align 1
@.str.491 = private unnamed_addr constant [59 x i8] c"%s:%s:%d:CMP %s: cannot write PKIMessage to file '%s'%s%s\0A\00", align 1

; Function Attrs: nounwind uwtable
define internal i32 @write_PKIMESSAGE(ptr noundef %0, ptr noundef %1) #0 {
  %3 = alloca i32, align 4
  %4 = alloca ptr, align 8
  %5 = alloca ptr, align 8
  %6 = alloca ptr, align 8
  %7 = alloca i32, align 4
  store ptr %0, ptr %4, align 8, !tbaa !63
  store ptr %1, ptr %5, align 8, !tbaa !8
  call void @llvm.lifetime.start.p0(i64 8, ptr %6) #11
  %8 = load ptr, ptr %4, align 8, !tbaa !63
  %9 = icmp eq ptr %8, null
  br i1 %9, label %13, label %10

10:                                               ; preds = %2
  %11 = load ptr, ptr %5, align 8, !tbaa !8
  %12 = icmp eq ptr %11, null
  br i1 %12, label %13, label %21

13:                                               ; preds = %10, %2
  %14 = load i32, ptr @opt_verbosity, align 4, !tbaa !4
  %15 = icmp sgt i32 3, %14
  br i1 %15, label %16, label %17

16:                                               ; preds = %13
  br label %20

17:                                               ; preds = %13
  %18 = load ptr, ptr @bio_err, align 8, !tbaa !21
  %19 = call i32 (ptr, ptr, ...) @BIO_printf(ptr noundef %18, ptr noundef @.str.489, ptr noundef @__func__.write_PKIMESSAGE, ptr noundef @.str.351, i32 noundef 813, ptr noundef @.str.352, ptr noundef @.str.353, ptr noundef @.str.353, ptr noundef @.str.353)
  br label %20

20:                                               ; preds = %17, %16
  store i32 0, ptr %3, align 4
  store i32 1, ptr %7, align 4
  br label %53

21:                                               ; preds = %10
  %22 = load ptr, ptr %5, align 8, !tbaa !8
  %23 = load ptr, ptr %22, align 8, !tbaa !11
  %24 = icmp eq ptr %23, null
  br i1 %24, label %25, label %33

25:                                               ; preds = %21
  %26 = load i32, ptr @opt_verbosity, align 4, !tbaa !4
  %27 = icmp sgt i32 3, %26
  br i1 %27, label %28, label %29

28:                                               ; preds = %25
  br label %32

29:                                               ; preds = %25
  %30 = load ptr, ptr @bio_err, align 8, !tbaa !21
  %31 = call i32 (ptr, ptr, ...) @BIO_printf(ptr noundef %30, ptr noundef @.str.490, ptr noundef @__func__.write_PKIMESSAGE, ptr noundef @.str.351, i32 noundef 817, ptr noundef @.str.352, ptr noundef @.str.353, ptr noundef @.str.353, ptr noundef @.str.353)
  br label %32

32:                                               ; preds = %29, %28
  store i32 0, ptr %3, align 4
  store i32 1, ptr %7, align 4
  br label %53

33:                                               ; preds = %21
  %34 = load ptr, ptr %5, align 8, !tbaa !8
  %35 = load ptr, ptr %34, align 8, !tbaa !11
  store ptr %35, ptr %6, align 8, !tbaa !11
  %36 = load ptr, ptr %6, align 8, !tbaa !11
  %37 = call ptr @next_item(ptr noundef %36)
  %38 = load ptr, ptr %5, align 8, !tbaa !8
  store ptr %37, ptr %38, align 8, !tbaa !11
  %39 = load ptr, ptr %6, align 8, !tbaa !11
  %40 = load ptr, ptr %4, align 8, !tbaa !63
  %41 = call i32 @OSSL_CMP_MSG_write(ptr noundef %39, ptr noundef %40)
  %42 = icmp slt i32 %41, 0
  br i1 %42, label %43, label %52

43:                                               ; preds = %33
  %44 = load i32, ptr @opt_verbosity, align 4, !tbaa !4
  %45 = icmp sgt i32 3, %44
  br i1 %45, label %46, label %47

46:                                               ; preds = %43
  br label %51

47:                                               ; preds = %43
  %48 = load ptr, ptr @bio_err, align 8, !tbaa !21
  %49 = load ptr, ptr %6, align 8, !tbaa !11
  %50 = call i32 (ptr, ptr, ...) @BIO_printf(ptr noundef %48, ptr noundef @.str.491, ptr noundef @__func__.write_PKIMESSAGE, ptr noundef @.str.351, i32 noundef 824, ptr noundef @.str.352, ptr noundef %49, ptr noundef @.str.353, ptr noundef @.str.353)
  br label %51

51:                                               ; preds = %47, %46
  store i32 0, ptr %3, align 4
  store i32 1, ptr %7, align 4
  br label %53

52:                                               ; preds = %33
  store i32 1, ptr %3, align 4
  store i32 1, ptr %7, align 4
  br label %53

53:                                               ; preds = %52, %51, %32, %20
  call void @llvm.lifetime.end.p0(i64 8, ptr %6) #11
  %54 = load i32, ptr %3, align 4
  ret i32 %54
}