; Function Attrs: nounwind uwtable
define internal fastcc range(i32 0, 2) i32 @write_PKIMESSAGE(ptr noundef %0, ptr noundef captures(address_is_null) %1) unnamed_addr #0 {
  %3 = icmp eq ptr %0, null
  %4 = icmp eq ptr %1, null
  %or.cond = or i1 %3, %4
  br i1 %or.cond, label %5, label %11

5:                                                ; preds = %2
  %6 = load i32, ptr @opt_verbosity, align 4, !tbaa !10
  %7 = icmp slt i32 %6, 3
  br i1 %7, label %30, label %8

8:                                                ; preds = %5
  %9 = load ptr, ptr @bio_err, align 8, !tbaa !12
  %10 = tail call i32 (ptr, ptr, ...) @BIO_printf(ptr noundef %9, ptr noundef nonnull @.str.489, ptr noundef nonnull @__func__.write_PKIMESSAGE, ptr noundef nonnull @.str.351, i32 noundef 813, ptr noundef nonnull @.str.352, ptr noundef nonnull @.str.353, ptr noundef nonnull @.str.353, ptr noundef nonnull @.str.353) #12
  br label %30

11:                                               ; preds = %2
  %12 = load ptr, ptr %1, align 8, !tbaa !4
  %13 = icmp eq ptr %12, null
  br i1 %13, label %14, label %20

14:                                               ; preds = %11
  %15 = load i32, ptr @opt_verbosity, align 4, !tbaa !10
  %16 = icmp slt i32 %15, 3
  br i1 %16, label %30, label %17

17:                                               ; preds = %14
  %18 = load ptr, ptr @bio_err, align 8, !tbaa !12
  %19 = tail call i32 (ptr, ptr, ...) @BIO_printf(ptr noundef %18, ptr noundef nonnull @.str.490, ptr noundef nonnull @__func__.write_PKIMESSAGE, ptr noundef nonnull @.str.351, i32 noundef 817, ptr noundef nonnull @.str.352, ptr noundef nonnull @.str.353, ptr noundef nonnull @.str.353, ptr noundef nonnull @.str.353) #12
  br label %30

20:                                               ; preds = %11
  %21 = tail call ptr @next_item(ptr noundef nonnull %12) #12
  store ptr %21, ptr %1, align 8, !tbaa !4
  %22 = tail call i32 @OSSL_CMP_MSG_write(ptr noundef nonnull %12, ptr noundef nonnull %0) #12
  %23 = icmp slt i32 %22, 0
  br i1 %23, label %24, label %30

24:                                               ; preds = %20
  %25 = load i32, ptr @opt_verbosity, align 4, !tbaa !10
  %26 = icmp slt i32 %25, 3
  br i1 %26, label %30, label %27

27:                                               ; preds = %24
  %28 = load ptr, ptr @bio_err, align 8, !tbaa !12
  %29 = tail call i32 (ptr, ptr, ...) @BIO_printf(ptr noundef %28, ptr noundef nonnull @.str.491, ptr noundef nonnull @__func__.write_PKIMESSAGE, ptr noundef nonnull @.str.351, i32 noundef 824, ptr noundef nonnull @.str.352, ptr noundef nonnull %12, ptr noundef nonnull @.str.353, ptr noundef nonnull @.str.353) #12
  br label %30

30:                                               ; preds = %20, %27, %24, %17, %14, %8, %5
  %.0 = phi i32 [ 0, %5 ], [ 0, %8 ], [ 0, %14 ], [ 0, %17 ], [ 0, %24 ], [ 0, %27 ], [ 1, %20 ]
  ret i32 %.0
}